; Function Attrs: nounwind sspstrong uwtable
define dso_local i64 @rb_big2ull(i64 noundef %0) local_unnamed_addr #0 {
  %2 = tail call fastcc i64 @big2ull(i64 noundef %0, ptr noundef nonnull @.str.8)
  %3 = inttoptr i64 %0 to ptr
  %4 = load i64, ptr %3, align 8, !tbaa !11
  %5 = and i64 %4, 8192
  %.not = icmp eq i64 %5, 0
  br i1 %.not, label %6, label %12

6:                                                ; preds = %1
  %7 = icmp ult i64 %2, -9223372036854775807
  br i1 %7, label %8, label %10

8:                                                ; preds = %6
  %9 = sub i64 0, %2
  br label %12

10:                                               ; preds = %6
  %11 = load i64, ptr @rb_eRangeError, align 8, !tbaa !7
  tail call void (i64, ptr, ...) @rb_raise(i64 noundef %11, ptr noundef nonnull @.str.9) #29
  unreachable

12:                                               ; preds = %1, %8
  %.0 = phi i64 [ %9, %8 ], [ %2, %1 ]
  ret i64 %.0
}